target datalayout = "e-m:e-p270:32:32-p271:32:32-p272:64:64-i64:64-i128:128-f80:128-n8:16:32:64-S128"
target triple = "x86_64-pc-linux-gnu"

@.str.24 = private unnamed_addr constant [28 x i8] c"../openssl/test/test_test.c\00", align 1
@stderr = external global ptr, align 8
@.str.47 = private unnamed_addr constant [19 x i8] c"# FATAL: %s != %d\0A\00", align 1
@.str.268 = private unnamed_addr constant [53 x i8] c"1234567890123456789012345678901234567890123456789012\00", align 1
@.str.271 = private unnamed_addr constant [2 x i8] c"p\00", align 1
@.str.272 = private unnamed_addr constant [2 x i8] c"q\00", align 1
@.str.348 = private unnamed_addr constant [53 x i8] c"1234567890klmnopqrs01234567890EFGHIJKLM0123456789XYZ\00", align 1
@.str.349 = private unnamed_addr constant [157 x i8] c"1234567890123456789012345678901234567890123456789012abcdefghijklmnopqrstuvwxyzABCDEFGHIJKLMNOPQRSTUVWXY+12345678901234567890123ABC78901234567890123456789012\00", align 1
@.str.350 = private unnamed_addr constant [209 x i8] c"1234567890123456789012345678901234567890123456789012abcdefghijklmnopqrstuvwxyzABCDEFGHIJKLMNOPQRSTUVWXY-1234567890123456789012345678901234567890123456789012abcdefghijklmnopqrstuvwxyzABCDEFGHIJKLMNOPQRSTUVWXYZ\00", align 1
@.str.351 = private unnamed_addr constant [18 x i8] c"TEST_str_eq(p, q)\00", align 1
@.str.352 = private unnamed_addr constant [18 x i8] c"TEST_str_eq(q, r)\00", align 1
@.str.353 = private unnamed_addr constant [2 x i8] c"r\00", align 1
@.str.354 = private unnamed_addr constant [18 x i8] c"TEST_str_eq(r, s)\00", align 1
@.str.355 = private unnamed_addr constant [2 x i8] c"s\00", align 1
@.str.356 = private unnamed_addr constant [40 x i8] c"TEST_mem_eq(r, strlen(r), s, strlen(s))\00", align 1

; Function Attrs: nounwind uwtable
define internal i32 @test_case(i32 noundef %0, ptr noundef %1, i32 noundef %2) #0 {
  %4 = alloca i32, align 4
  %5 = alloca i32, align 4
  %6 = alloca ptr, align 8
  %7 = alloca i32, align 4
  store i32 %0, ptr %5, align 4, !tbaa !4
  store ptr %1, ptr %6, align 8, !tbaa !9
  store i32 %2, ptr %7, align 4, !tbaa !4
  %8 = load i32, ptr %7, align 4, !tbaa !4
  %9 = load i32, ptr %5, align 4, !tbaa !4
  %10 = icmp ne i32 %8, %9
  br i1 %10, label %11, label %16

11:                                               ; preds = %3
  %12 = load ptr, ptr @stderr, align 8, !tbaa !16
  %13 = load ptr, ptr %6, align 8, !tbaa !9
  %14 = load i32, ptr %5, align 4, !tbaa !4
  %15 = call i32 (ptr, ptr, ...) @fprintf(ptr noundef %12, ptr noundef @.str.47, ptr noundef %13, i32 noundef %14) #7
  store i32 0, ptr %4, align 4
  br label %17

16:                                               ; preds = %3
  store i32 1, ptr %4, align 4
  br label %17

17:                                               ; preds = %16, %11
  %18 = load i32, ptr %4, align 4
  ret i32 %18
}

; Function Attrs: nounwind uwtable
define internal i32 @test_long_output() #0 {
  %1 = alloca ptr, align 8
  %2 = alloca ptr, align 8
  %3 = alloca ptr, align 8
  %4 = alloca ptr, align 8
  call void @llvm.lifetime.start.p0(i64 8, ptr %1) #7
  store ptr @.str.268, ptr %1, align 8, !tbaa !9
  call void @llvm.lifetime.start.p0(i64 8, ptr %2) #7
  store ptr @.str.348, ptr %2, align 8, !tbaa !9
  call void @llvm.lifetime.start.p0(i64 8, ptr %3) #7
  store ptr @.str.349, ptr %3, align 8, !tbaa !9
  call void @llvm.lifetime.start.p0(i64 8, ptr %4) #7
  store ptr @.str.350, ptr %4, align 8, !tbaa !9
  %5 = load ptr, ptr %1, align 8, !tbaa !9
  %6 = load ptr, ptr %2, align 8, !tbaa !9
  %7 = call i32 @test_str_eq(ptr noundef @.str.24, i32 noundef 395, ptr noundef @.str.271, ptr noundef @.str.272, ptr noundef %5, ptr noundef %6)
  %8 = call i32 @test_case(i32 noundef 0, ptr noundef @.str.351, i32 noundef %7)
  %9 = load ptr, ptr %2, align 8, !tbaa !9
  %10 = load ptr, ptr %3, align 8, !tbaa !9
  %11 = call i32 @test_str_eq(ptr noundef @.str.24, i32 noundef 396, ptr noundef @.str.272, ptr noundef @.str.353, ptr noundef %9, ptr noundef %10)
  %12 = call i32 @test_case(i32 noundef 0, ptr noundef @.str.352, i32 noundef %11)
  %13 = and i32 %8, %12
  %14 = load ptr, ptr %3, align 8, !tbaa !9
  %15 = load ptr, ptr %4, align 8, !tbaa !9
  %16 = call i32 @test_str_eq(ptr noundef @.str.24, i32 noundef 397, ptr noundef @.str.353, ptr noundef @.str.355, ptr noundef %14, ptr noundef %15)
  %17 = call i32 @test_case(i32 noundef 0, ptr noundef @.str.354, i32 noundef %16)
  %18 = and i32 %13, %17
  %19 = load ptr, ptr %3, align 8, !tbaa !9
  %20 = load ptr, ptr %3, align 8, !tbaa !9
  %21 = call i64 @strlen(ptr noundef %20) #8
  %22 = load ptr, ptr %4, align 8, !tbaa !9
  %23 = load ptr, ptr %4, align 8, !tbaa !9
  %24 = call i64 @strlen(ptr noundef %23) #8
  %25 = call i32 @test_mem_eq(ptr noundef @.str.24, i32 noundef 398, ptr noundef @.str.353, ptr noundef @.str.355, ptr noundef %19, i64 noundef %21, ptr noundef %22, i64 noundef %24)
  %26 = call i32 @test_case(i32 noundef 0, ptr noundef @.str.356, i32 noundef %25)
  %27 = and i32 %18, %26
  call void @llvm.lifetime.end.p0(i64 8, ptr %4) #7
  call void @llvm.lifetime.end.p0(i64 8, ptr %3) #7
  call void @llvm.lifetime.end.p0(i64 8, ptr %2) #7
  call void @llvm.lifetime.end.p0(i64 8, ptr %1) #7
  ret i32 %27
}