; Function Attrs: nounwind uwtable
define internal range(i32 0, 2) i32 @test_long_output() #0 {
  %1 = tail call i32 @test_str_eq(ptr noundef nonnull @.str.24, i32 noundef 395, ptr noundef nonnull @.str.271, ptr noundef nonnull @.str.272, ptr noundef nonnull @.str.268, ptr noundef nonnull @.str.348) #5
  %.not.i = icmp eq i32 %1, 0
  br i1 %.not.i, label %test_case.exit, label %2

2:                                                ; preds = %0
  %3 = load ptr, ptr @stderr, align 8, !tbaa !4
  %4 = tail call i32 (ptr, ptr, ...) @fprintf(ptr noundef %3, ptr noundef nonnull @.str.47, ptr noundef nonnull @.str.351, i32 noundef 0) #6
  br label %test_case.exit

test_case.exit:                                   ; preds = %0, %2
  %.0.i = phi i32 [ 0, %2 ], [ 1, %0 ]
  %5 = tail call i32 @test_str_eq(ptr noundef nonnull @.str.24, i32 noundef 396, ptr noundef nonnull @.str.272, ptr noundef nonnull @.str.353, ptr noundef nonnull @.str.348, ptr noundef nonnull @.str.349) #5
  %.not.i10 = icmp eq i32 %5, 0
  br i1 %.not.i10, label %test_case.exit12, label %6

6:                                                ; preds = %test_case.exit
  %7 = load ptr, ptr @stderr, align 8, !tbaa !4
  %8 = tail call i32 (ptr, ptr, ...) @fprintf(ptr noundef %7, ptr noundef nonnull @.str.47, ptr noundef nonnull @.str.352, i32 noundef 0) #6
  br label %test_case.exit12

test_case.exit12:                                 ; preds = %test_case.exit, %6
  %.0.i11 = phi i32 [ 0, %6 ], [ 1, %test_case.exit ]
  %9 = tail call i32 @test_str_eq(ptr noundef nonnull @.str.24, i32 noundef 397, ptr noundef nonnull @.str.353, ptr noundef nonnull @.str.355, ptr noundef nonnull @.str.349, ptr noundef nonnull @.str.350) #5
  %.not.i13 = icmp eq i32 %9, 0
  br i1 %.not.i13, label %test_case.exit15, label %10

10:                                               ; preds = %test_case.exit12
  %11 = load ptr, ptr @stderr, align 8, !tbaa !4
  %12 = tail call i32 (ptr, ptr, ...) @fprintf(ptr noundef %11, ptr noundef nonnull @.str.47, ptr noundef nonnull @.str.354, i32 noundef 0) #6
  br label %test_case.exit15

test_case.exit15:                                 ; preds = %test_case.exit12, %10
  %.0.i14 = phi i32 [ 0, %10 ], [ 1, %test_case.exit12 ]
  %13 = tail call i32 @test_mem_eq(ptr noundef nonnull @.str.24, i32 noundef 398, ptr noundef nonnull @.str.353, ptr noundef nonnull @.str.355, ptr noundef nonnull @.str.349, i64 noundef 156, ptr noundef nonnull @.str.350, i64 noundef 208) #5
  %.not.i16 = icmp eq i32 %13, 0
  br i1 %.not.i16, label %test_case.exit18, label %14

14:                                               ; preds = %test_case.exit15
  %15 = load ptr, ptr @stderr, align 8, !tbaa !4
  %16 = tail call i32 (ptr, ptr, ...) @fprintf(ptr noundef %15, ptr noundef nonnull @.str.47, ptr noundef nonnull @.str.356, i32 noundef 0) #6
  br label %test_case.exit18

test_case.exit18:                                 ; preds = %test_case.exit15, %14
  %.0.i17 = phi i32 [ 0, %14 ], [ 1, %test_case.exit15 ]
  %17 = and i32 %.0.i11, %.0.i
  %18 = and i32 %17, %.0.i14
  %19 = and i32 %18, %.0.i17
  ret i32 %19
}